target datalayout = "e-m:e-p270:32:32-p271:32:32-p272:64:64-i64:64-i128:128-f80:128-n8:16:32:64-S128"
target triple = "x86_64-pc-linux-gnu"

%struct.H5S_t = type { %struct.H5S_extent_t, %struct.H5S_select_t }
%struct.H5S_extent_t = type { %struct.H5O_shared_t, i32, i32, i64, i32, ptr, ptr }
%struct.H5O_shared_t = type { i32, ptr, i32, %union.anon }
%union.anon = type { %struct.H5O_mesg_loc_t }
%struct.H5O_mesg_loc_t = type { i32, i64 }
%struct.H5S_select_t = type { ptr, i8, [32 x i64], i64, %union.anon.0 }
%union.anon.0 = type { ptr }

@H5S_init_g = global i8 0, align 1
@H5_H5S_t_reg_free_list = global { i8, [3 x i8], i32, i32, [4 x i8], ptr, i64, ptr } { i8 0, [3 x i8] zeroinitializer, i32 0, i32 0, [4 x i8] zeroinitializer, ptr @.str.1, i64 368, ptr null }, align 8
@H5_hsize_t_arr_free_list = global { i8, [3 x i8], i32, i64, ptr, i32, [4 x i8], i64, i64, ptr } { i8 0, [3 x i8] zeroinitializer, i32 0, i64 0, ptr @.str.2, i32 33, [4 x i8] zeroinitializer, i64 0, i64 8, ptr null }, align 8
@H5_libterm_g = external global i8, align 1
@.str.3 = private unnamed_addr constant [97 x i8] c"generated/home/dtcxzyw/WorkSpace/Projects/compilers/llvm-opt-benchmark/bench/hdf5/hdf5/src/H5S.c\00", align 1
@H5E_FUNC_g = external global i64, align 8
@H5E_CANTINIT_g = external global i64, align 8
@.str.4 = private unnamed_addr constant [32 x i8] c"interface initialization failed\00", align 1
@H5E_DATASPACE_g = external global i64, align 8
@H5E_CANTRELEASE_g = external global i64, align 8
@__func__.H5S_close = private unnamed_addr constant [10 x i8] c"H5S_close\00", align 1
@.str.16 = private unnamed_addr constant [38 x i8] c"unable to release dataspace selection\00", align 1
@.str.17 = private unnamed_addr constant [35 x i8] c"unable to release dataspace extent\00", align 1

; Function Attrs: nounwind uwtable
define i32 @H5S__extent_release(ptr noundef %0) #0 {
  %2 = alloca ptr, align 8
  store ptr %0, ptr %2, align 8, !tbaa !29
  %3 = load i8, ptr @H5S_init_g, align 1, !tbaa !7, !range !9, !noundef !10
  %4 = trunc i8 %3 to i1
  br i1 %4, label %9, label %5

5:                                                ; preds = %1
  %6 = load i8, ptr @H5_libterm_g, align 1, !tbaa !7, !range !9, !noundef !10
  %7 = trunc i8 %6 to i1
  %8 = xor i1 %7, true
  br label %9

9:                                                ; preds = %5, %1
  %10 = phi i1 [ true, %1 ], [ %8, %5 ]
  %11 = xor i1 %10, true
  %12 = xor i1 %11, true
  %13 = zext i1 %12 to i32
  %14 = sext i32 %13 to i64
  %15 = call i64 @llvm.expect.i64(i64 %14, i64 1)
  %16 = icmp ne i64 %15, 0
  br i1 %16, label %17, label %52

17:                                               ; preds = %9
  %18 = load ptr, ptr %2, align 8, !tbaa !29
  %19 = getelementptr inbounds nuw %struct.H5S_extent_t, ptr %18, i32 0, i32 1
  %20 = load i32, ptr %19, align 8, !tbaa !31
  %21 = icmp eq i32 %20, 1
  br i1 %21, label %22, label %47

22:                                               ; preds = %17
  %23 = load ptr, ptr %2, align 8, !tbaa !29
  %24 = getelementptr inbounds nuw %struct.H5S_extent_t, ptr %23, i32 0, i32 5
  %25 = load ptr, ptr %24, align 8, !tbaa !32
  %26 = icmp ne ptr %25, null
  br i1 %26, label %27, label %34

27:                                               ; preds = %22
  %28 = load ptr, ptr %2, align 8, !tbaa !29
  %29 = getelementptr inbounds nuw %struct.H5S_extent_t, ptr %28, i32 0, i32 5
  %30 = load ptr, ptr %29, align 8, !tbaa !32
  %31 = call ptr @H5FL_arr_free(ptr noundef @H5_hsize_t_arr_free_list, ptr noundef %30)
  %32 = load ptr, ptr %2, align 8, !tbaa !29
  %33 = getelementptr inbounds nuw %struct.H5S_extent_t, ptr %32, i32 0, i32 5
  store ptr %31, ptr %33, align 8, !tbaa !32
  br label %34

34:                                               ; preds = %27, %22
  %35 = load ptr, ptr %2, align 8, !tbaa !29
  %36 = getelementptr inbounds nuw %struct.H5S_extent_t, ptr %35, i32 0, i32 6
  %37 = load ptr, ptr %36, align 8, !tbaa !33
  %38 = icmp ne ptr %37, null
  br i1 %38, label %39, label %46

39:                                               ; preds = %34
  %40 = load ptr, ptr %2, align 8, !tbaa !29
  %41 = getelementptr inbounds nuw %struct.H5S_extent_t, ptr %40, i32 0, i32 6
  %42 = load ptr, ptr %41, align 8, !tbaa !33
  %43 = call ptr @H5FL_arr_free(ptr noundef @H5_hsize_t_arr_free_list, ptr noundef %42)
  %44 = load ptr, ptr %2, align 8, !tbaa !29
  %45 = getelementptr inbounds nuw %struct.H5S_extent_t, ptr %44, i32 0, i32 6
  store ptr %43, ptr %45, align 8, !tbaa !33
  br label %46

46:                                               ; preds = %39, %34
  br label %47

47:                                               ; preds = %46, %17
  %48 = load ptr, ptr %2, align 8, !tbaa !29
  %49 = getelementptr inbounds nuw %struct.H5S_extent_t, ptr %48, i32 0, i32 4
  store i32 0, ptr %49, align 8, !tbaa !34
  %50 = load ptr, ptr %2, align 8, !tbaa !29
  %51 = getelementptr inbounds nuw %struct.H5S_extent_t, ptr %50, i32 0, i32 3
  store i64 0, ptr %51, align 8, !tbaa !35
  br label %52

52:                                               ; preds = %47, %9
  ret i32 0
}

; Function Attrs: nounwind uwtable
define i32 @H5S_close(ptr noundef %0) #0 {
  %2 = alloca ptr, align 8
  %3 = alloca i32, align 4
  %4 = alloca i8, align 1
  store ptr %0, ptr %2, align 8, !tbaa !13
  call void @llvm.lifetime.start.p0(i64 4, ptr %3) #7
  store i32 0, ptr %3, align 4, !tbaa !3
  call void @llvm.lifetime.start.p0(i64 1, ptr %4) #7
  store i8 0, ptr %4, align 1, !tbaa !7
  %5 = load i8, ptr @H5S_init_g, align 1, !tbaa !7, !range !9, !noundef !10
  %6 = trunc i8 %5 to i1
  br i1 %6, label %11, label %7

7:                                                ; preds = %1
  %8 = load i8, ptr @H5_libterm_g, align 1, !tbaa !7, !range !9, !noundef !10
  %9 = trunc i8 %8 to i1
  %10 = xor i1 %9, true
  br label %11

11:                                               ; preds = %7, %1
  %12 = phi i1 [ false, %1 ], [ %10, %7 ]
  %13 = xor i1 %12, true
  %14 = xor i1 %13, true
  %15 = zext i1 %14 to i32
  %16 = sext i32 %15 to i64
  %17 = call i64 @llvm.expect.i64(i64 %16, i64 0)
  %18 = icmp ne i64 %17, 0
  br i1 %18, label %19, label %42

19:                                               ; preds = %11
  store i8 1, ptr @H5S_init_g, align 1, !tbaa !7
  %20 = call i32 @H5S__init_package()
  %21 = icmp slt i32 %20, 0
  br i1 %21, label %22, label %41

22:                                               ; preds = %19
  store i8 0, ptr @H5S_init_g, align 1, !tbaa !7
  br label %23

23:                                               ; preds = %22
  br label %24

24:                                               ; preds = %23
  br label %25

25:                                               ; preds = %24
  %26 = load i64, ptr @H5E_FUNC_g, align 8, !tbaa !11
  %27 = load i64, ptr @H5E_CANTINIT_g, align 8, !tbaa !11
  %28 = call i32 (ptr, ptr, i32, i64, i64, ptr, ...) @H5E_printf_stack(ptr noundef @.str.3, ptr noundef @__func__.H5S_close, i32 noundef 441, i64 noundef %26, i64 noundef %27, ptr noundef @.str.4)
  br label %29

29:                                               ; preds = %25
  br label %30

30:                                               ; preds = %29
  store i8 1, ptr %4, align 1, !tbaa !7
  %31 = load i8, ptr %4, align 1, !tbaa !7, !range !9, !noundef !10
  %32 = trunc i8 %31 to i1
  %33 = zext i1 %32 to i8
  store i8 %33, ptr %4, align 1, !tbaa !7
  br label %34

34:                                               ; preds = %30
  br label %35

35:                                               ; preds = %34
  br label %36

36:                                               ; preds = %35
  store i32 -1, ptr %3, align 4, !tbaa !3
  br label %105

37:                                               ; No predecessors!
  br label %38

38:                                               ; preds = %37
  br label %39

39:                                               ; preds = %38
  br label %40

40:                                               ; preds = %39
  br label %41

41:                                               ; preds = %40, %19
  br label %42

42:                                               ; preds = %41, %11
  %43 = load i8, ptr @H5S_init_g, align 1, !tbaa !7, !range !9, !noundef !10
  %44 = trunc i8 %43 to i1
  br i1 %44, label %49, label %45

45:                                               ; preds = %42
  %46 = load i8, ptr @H5_libterm_g, align 1, !tbaa !7, !range !9, !noundef !10
  %47 = trunc i8 %46 to i1
  %48 = xor i1 %47, true
  br label %49

49:                                               ; preds = %45, %42
  %50 = phi i1 [ true, %42 ], [ %48, %45 ]
  %51 = xor i1 %50, true
  %52 = xor i1 %51, true
  %53 = zext i1 %52 to i32
  %54 = sext i32 %53 to i64
  %55 = call i64 @llvm.expect.i64(i64 %54, i64 1)
  %56 = icmp ne i64 %55, 0
  br i1 %56, label %57, label %108

57:                                               ; preds = %49
  %58 = load ptr, ptr %2, align 8, !tbaa !13
  %59 = call i32 @H5S_select_release(ptr noundef %58)
  %60 = icmp slt i32 %59, 0
  br i1 %60, label %61, label %80

61:                                               ; preds = %57
  br label %62

62:                                               ; preds = %61
  br label %63

63:                                               ; preds = %62
  br label %64

64:                                               ; preds = %63
  %65 = load i64, ptr @H5E_DATASPACE_g, align 8, !tbaa !11
  %66 = load i64, ptr @H5E_CANTRELEASE_g, align 8, !tbaa !11
  %67 = call i32 (ptr, ptr, i32, i64, i64, ptr, ...) @H5E_printf_stack(ptr noundef @.str.3, ptr noundef @__func__.H5S_close, i32 noundef 447, i64 noundef %65, i64 noundef %66, ptr noundef @.str.16)
  br label %68

68:                                               ; preds = %64
  br label %69

69:                                               ; preds = %68
  store i8 1, ptr %4, align 1, !tbaa !7
  %70 = load i8, ptr %4, align 1, !tbaa !7, !range !9, !noundef !10
  %71 = trunc i8 %70 to i1
  %72 = zext i1 %71 to i8
  store i8 %72, ptr %4, align 1, !tbaa !7
  br label %73

73:                                               ; preds = %69
  br label %74

74:                                               ; preds = %73
  br label %75

75:                                               ; preds = %74
  store i32 -1, ptr %3, align 4, !tbaa !3
  br label %105

76:                                               ; No predecessors!
  br label %77

77:                                               ; preds = %76
  br label %78

78:                                               ; preds = %77
  br label %79

79:                                               ; preds = %78
  br label %80

80:                                               ; preds = %79, %57
  %81 = load ptr, ptr %2, align 8, !tbaa !13
  %82 = getelementptr inbounds nuw %struct.H5S_t, ptr %81, i32 0, i32 0
  %83 = call i32 @H5S__extent_release(ptr noundef %82)
  %84 = icmp slt i32 %83, 0
  br i1 %84, label %85, label %104

85:                                               ; preds = %80
  br label %86

86:                                               ; preds = %85
  br label %87

87:                                               ; preds = %86
  br label %88

88:                                               ; preds = %87
  %89 = load i64, ptr @H5E_DATASPACE_g, align 8, !tbaa !11
  %90 = load i64, ptr @H5E_CANTRELEASE_g, align 8, !tbaa !11
  %91 = call i32 (ptr, ptr, i32, i64, i64, ptr, ...) @H5E_printf_stack(ptr noundef @.str.3, ptr noundef @__func__.H5S_close, i32 noundef 451, i64 noundef %89, i64 noundef %90, ptr noundef @.str.17)
  br label %92

92:                                               ; preds = %88
  br label %93

93:                                               ; preds = %92
  store i8 1, ptr %4, align 1, !tbaa !7
  %94 = load i8, ptr %4, align 1, !tbaa !7, !range !9, !noundef !10
  %95 = trunc i8 %94 to i1
  %96 = zext i1 %95 to i8
  store i8 %96, ptr %4, align 1, !tbaa !7
  br label %97

97:                                               ; preds = %93
  br label %98

98:                                               ; preds = %97
  br label %99

99:                                               ; preds = %98
  store i32 -1, ptr %3, align 4, !tbaa !3
  br label %105

100:                                              ; No predecessors!
  br label %101

101:                                              ; preds = %100
  br label %102

102:                                              ; preds = %101
  br label %103

103:                                              ; preds = %102
  br label %104

104:                                              ; preds = %103, %80
  br label %105

105:                                              ; preds = %104, %99, %75, %36
  %106 = load ptr, ptr %2, align 8, !tbaa !13
  %107 = call ptr @H5FL_reg_free(ptr noundef @H5_H5S_t_reg_free_list, ptr noundef %106)
  br label %108

108:                                              ; preds = %105, %49
  %109 = load i32, ptr %3, align 4, !tbaa !3
  call void @llvm.lifetime.end.p0(i64 1, ptr %4) #7
  call void @llvm.lifetime.end.p0(i64 4, ptr %3) #7
  ret i32 %109
}