; Function Attrs: nounwind uwtable
define range(i32 -1, 1) i32 @H5S_close(ptr noundef %0) local_unnamed_addr #0 {
  %2 = load i8, ptr @H5S_init_g, align 1, !tbaa !3, !range !7, !noundef !8
  %3 = trunc nuw i8 %2 to i1
  %4 = load i8, ptr @H5_libterm_g, align 1, !range !7
  %5 = trunc nuw i8 %4 to i1
  %6 = select i1 %3, i1 true, i1 %5
  br i1 %6, label %14, label %7, !prof !9

7:                                                ; preds = %1
  store i8 1, ptr @H5S_init_g, align 1, !tbaa !3
  %8 = tail call i32 @H5S__init_package()
  %9 = icmp slt i32 %8, 0
  br i1 %9, label %10, label %._crit_edge

._crit_edge:                                      ; preds = %7
  %.pre = load i8, ptr @H5S_init_g, align 1, !tbaa !3, !range !7
  %.pre6 = load i8, ptr @H5_libterm_g, align 1, !range !7
  %.pre7 = trunc nuw i8 %.pre to i1
  %.pre8 = trunc nuw i8 %.pre6 to i1
  br label %14

10:                                               ; preds = %7
  store i8 0, ptr @H5S_init_g, align 1, !tbaa !3
  %11 = load i64, ptr @H5E_FUNC_g, align 8, !tbaa !10
  %12 = load i64, ptr @H5E_CANTINIT_g, align 8, !tbaa !10
  %13 = tail call i32 (ptr, ptr, i32, i64, i64, ptr, ...) @H5E_printf_stack(ptr noundef nonnull @.str.3, ptr noundef nonnull @__func__.H5S_close, i32 noundef 441, i64 noundef %11, i64 noundef %12, ptr noundef nonnull @.str.4) #10
  br label %H5S__extent_release.exit

14:                                               ; preds = %._crit_edge, %1
  %.pre-phi9 = phi i1 [ %.pre8, %._crit_edge ], [ %5, %1 ]
  %.pre-phi = phi i1 [ %.pre7, %._crit_edge ], [ %3, %1 ]
  %15 = xor i1 %.pre-phi9, true
  %16 = select i1 %.pre-phi, i1 true, i1 %15
  br i1 %16, label %17, label %49, !prof !9

17:                                               ; preds = %14
  %18 = tail call i32 @H5S_select_release(ptr noundef %0) #10
  %19 = icmp slt i32 %18, 0
  br i1 %19, label %20, label %24

20:                                               ; preds = %17
  %21 = load i64, ptr @H5E_DATASPACE_g, align 8, !tbaa !10
  %22 = load i64, ptr @H5E_CANTRELEASE_g, align 8, !tbaa !10
  %23 = tail call i32 (ptr, ptr, i32, i64, i64, ptr, ...) @H5E_printf_stack(ptr noundef nonnull @.str.3, ptr noundef nonnull @__func__.H5S_close, i32 noundef 447, i64 noundef %21, i64 noundef %22, ptr noundef nonnull @.str.16) #10
  br label %H5S__extent_release.exit

24:                                               ; preds = %17
  %25 = load i8, ptr @H5S_init_g, align 1, !tbaa !3, !range !7, !noundef !8
  %26 = trunc nuw i8 %25 to i1
  %27 = load i8, ptr @H5_libterm_g, align 1, !range !7
  %28 = trunc nuw i8 %27 to i1
  %29 = xor i1 %28, true
  %30 = select i1 %26, i1 true, i1 %29
  br i1 %30, label %31, label %H5S__extent_release.exit, !prof !9

31:                                               ; preds = %24
  %32 = getelementptr inbounds nuw i8, ptr %0, i64 40
  %33 = load i32, ptr %32, align 8, !tbaa !26
  %34 = icmp eq i32 %33, 1
  br i1 %34, label %35, label %45

35:                                               ; preds = %31
  %36 = getelementptr inbounds nuw i8, ptr %0, i64 64
  %37 = load ptr, ptr %36, align 8, !tbaa !27
  %.not.i = icmp eq ptr %37, null
  br i1 %.not.i, label %40, label %38

38:                                               ; preds = %35
  %39 = tail call ptr @H5FL_arr_free(ptr noundef nonnull @H5_hsize_t_arr_free_list, ptr noundef nonnull %37) #10
  store ptr %39, ptr %36, align 8, !tbaa !27
  br label %40

40:                                               ; preds = %38, %35
  %41 = getelementptr inbounds nuw i8, ptr %0, i64 72
  %42 = load ptr, ptr %41, align 8, !tbaa !28
  %.not10.i = icmp eq ptr %42, null
  br i1 %.not10.i, label %45, label %43

43:                                               ; preds = %40
  %44 = tail call ptr @H5FL_arr_free(ptr noundef nonnull @H5_hsize_t_arr_free_list, ptr noundef nonnull %42) #10
  store ptr %44, ptr %41, align 8, !tbaa !28
  br label %45

45:                                               ; preds = %43, %40, %31
  %46 = getelementptr inbounds nuw i8, ptr %0, i64 56
  store i32 0, ptr %46, align 8, !tbaa !29
  %47 = getelementptr inbounds nuw i8, ptr %0, i64 48
  store i64 0, ptr %47, align 8, !tbaa !30
  br label %H5S__extent_release.exit

H5S__extent_release.exit:                         ; preds = %45, %24, %20, %10
  %.0 = phi i32 [ -1, %10 ], [ -1, %20 ], [ 0, %24 ], [ 0, %45 ]
  %48 = tail call ptr @H5FL_reg_free(ptr noundef nonnull @H5_H5S_t_reg_free_list, ptr noundef %0) #10
  br label %49

49:                                               ; preds = %H5S__extent_release.exit, %14
  %.1 = phi i32 [ %.0, %H5S__extent_release.exit ], [ 0, %14 ]
  ret i32 %.1
}